target datalayout = "e-m:e-p270:32:32-p271:32:32-p272:64:64-i64:64-i128:128-f80:128-n8:16:32:64-S128"
target triple = "x86_64-pc-linux-gnu"

%class.stringStream = type <{ %class.outputStream, ptr, i64, i64, i8, [48 x i8], [7 x i8] }>
%class.outputStream = type { ptr, i32, i8, i32, i64, %class.TimeStamp, ptr, i64 }
%class.TimeStamp = type { i64 }

; Function Attrs: mustprogress nounwind uwtable
define linkonce_odr hidden void @_ZN12outputStream9print_rawEPKc(ptr noundef nonnull align 8 dereferenceable(56) %0, ptr noundef %1) #1 comdat align 2 {
  %3 = alloca ptr, align 8
  %4 = alloca ptr, align 8
  store ptr %0, ptr %3, align 8
  store ptr %1, ptr %4, align 8
  %5 = load ptr, ptr %3, align 8
  %6 = load ptr, ptr %4, align 8
  %7 = load ptr, ptr %4, align 8
  %8 = call i64 @strlen(ptr noundef %7) #10
  call void @_ZN12outputStream9print_rawEPKcm(ptr noundef nonnull align 8 dereferenceable(56) %5, ptr noundef %6, i64 noundef %8)
  ret void
}

; Function Attrs: mustprogress nounwind uwtable
define hidden noundef ptr @_ZN12NativeLookup25compute_complete_jni_nameEPKcS1_ib(ptr noundef %0, ptr noundef %1, i32 noundef %2, i1 noundef zeroext %3) #1 align 2 {
  %5 = alloca ptr, align 8
  %6 = alloca ptr, align 8
  %7 = alloca i32, align 4
  %8 = alloca i8, align 1
  %9 = alloca %class.stringStream, align 8
  store ptr %0, ptr %5, align 8
  store ptr %1, ptr %6, align 8
  store i32 %2, ptr %7, align 4
  %10 = zext i1 %3 to i8
  store i8 %10, ptr %8, align 1
  call void @_ZN12stringStreamC1Em(ptr noundef nonnull align 8 dereferenceable(129) %9, i64 noundef 0)
  %11 = load i8, ptr %8, align 1
  %12 = trunc i8 %11 to i1
  br i1 %12, label %13, label %15

13:                                               ; preds = %4
  %14 = load i32, ptr %7, align 4
  call void @_ZN2os24print_jni_name_prefix_onEP12outputStreami(ptr noundef %9, i32 noundef %14)
  br label %15

15:                                               ; preds = %13, %4
  %16 = load ptr, ptr %5, align 8
  call void @_ZN12outputStream9print_rawEPKc(ptr noundef nonnull align 8 dereferenceable(56) %9, ptr noundef %16)
  %17 = load ptr, ptr %6, align 8
  call void @_ZN12outputStream9print_rawEPKc(ptr noundef nonnull align 8 dereferenceable(56) %9, ptr noundef %17)
  %18 = load i8, ptr %8, align 1
  %19 = trunc i8 %18 to i1
  br i1 %19, label %20, label %22

20:                                               ; preds = %15
  %21 = load i32, ptr %7, align 4
  call void @_ZN2os24print_jni_name_suffix_onEP12outputStreami(ptr noundef %9, i32 noundef %21)
  br label %22

22:                                               ; preds = %20, %15
  %23 = call noundef ptr @_ZNK12stringStream9as_stringEb(ptr noundef nonnull align 8 dereferenceable(129) %9, i1 noundef zeroext false)
  call void @_ZN12stringStreamD1Ev(ptr noundef nonnull align 8 dereferenceable(129) %9) #9
  ret ptr %23
}