; Function Attrs: mustprogress nounwind uwtable
define hidden noundef ptr @_ZN12NativeLookup25compute_complete_jni_nameEPKcS1_ib(ptr noundef %0, ptr noundef %1, i32 noundef %2, i1 noundef zeroext %3) local_unnamed_addr #0 align 2 {
  %5 = alloca %class.stringStream, align 8
  call void @_ZN12stringStreamC1Em(ptr noundef nonnull align 8 dereferenceable(129) %5, i64 noundef 0) #10
  br i1 %3, label %6, label %.critedge

6:                                                ; preds = %4
  call void @_ZN2os24print_jni_name_prefix_onEP12outputStreami(ptr noundef nonnull %5, i32 noundef %2) #10
  %7 = call i64 @strlen(ptr noundef nonnull dereferenceable(1) %0) #11
  call void @_ZN12outputStream9print_rawEPKcm(ptr noundef nonnull align 8 dereferenceable(56) %5, ptr noundef %0, i64 noundef %7) #10
  %8 = call i64 @strlen(ptr noundef nonnull dereferenceable(1) %1) #11
  call void @_ZN12outputStream9print_rawEPKcm(ptr noundef nonnull align 8 dereferenceable(56) %5, ptr noundef %1, i64 noundef %8) #10
  call void @_ZN2os24print_jni_name_suffix_onEP12outputStreami(ptr noundef nonnull %5, i32 noundef %2) #10
  br label %11

.critedge:                                        ; preds = %4
  %9 = call i64 @strlen(ptr noundef nonnull dereferenceable(1) %0) #11
  call void @_ZN12outputStream9print_rawEPKcm(ptr noundef nonnull align 8 dereferenceable(56) %5, ptr noundef %0, i64 noundef %9) #10
  %10 = call i64 @strlen(ptr noundef nonnull dereferenceable(1) %1) #11
  call void @_ZN12outputStream9print_rawEPKcm(ptr noundef nonnull align 8 dereferenceable(56) %5, ptr noundef %1, i64 noundef %10) #10
  br label %11

11:                                               ; preds = %.critedge, %6
  %12 = call noundef ptr @_ZNK12stringStream9as_stringEb(ptr noundef nonnull align 8 dereferenceable(129) %5, i1 noundef zeroext false) #10
  call void @_ZN12stringStreamD1Ev(ptr noundef nonnull align 8 dereferenceable(129) %5) #10
  ret ptr %12
}